; ModuleID = '24/562.c'
source_filename = "24/562.c"
target datalayout = "e-m:e-p270:32:32-p271:32:32-p272:64:64-i64:64-f80:128-n8:16:32:64-S128"
target triple = "x86_64-pc-linux-gnu"

@.str = private unnamed_addr constant [3 x i8] c"%c\00", align 1
@.str.1 = private unnamed_addr constant [2 x i8] c"\0A\00", align 1

; Function Attrs: noinline nounwind uwtable
define dso_local i32 @main() #0 {
  %1 = alloca i32, align 4
  %2 = alloca i32, align 4
  %3 = alloca i32, align 4
  %4 = alloca i32, align 4
  %5 = alloca i32, align 4
  %6 = alloca i32, align 4
  %7 = alloca i32, align 4
  %8 = alloca i32, align 4
  %9 = alloca i32, align 4
  %10 = alloca [50 x i32], align 16
  %11 = alloca i8, align 1
  %12 = alloca [1000 x i8], align 16
  store i32 0, i32* %1, align 4
  %13 = getelementptr inbounds [1000 x i8], [1000 x i8]* %12, i64 0, i64 0
  %14 = call i32 (i8*, ...) bitcast (i32 (...)* @gets to i32 (i8*, ...)*)(i8* %13)
  store i32 0, i32* %2, align 4
  store i32 0, i32* %3, align 4
  br label %15

15:                                               ; preds = %34, %0
  %16 = load i32, i32* %2, align 4
  %17 = sext i32 %16 to i64
  %18 = getelementptr inbounds [1000 x i8], [1000 x i8]* %12, i64 0, i64 %17
  %19 = load i8, i8* %18, align 1
  store i8 %19, i8* %11, align 1
  %20 = sext i8 %19 to i32
  %21 = icmp ne i32 %20, 0
  br i1 %21, label %22, label %37

22:                                               ; preds = %15
  %23 = load i8, i8* %11, align 1
  %24 = sext i8 %23 to i32
  %25 = icmp eq i32 %24, 32
  br i1 %25, label %26, label %33

26:                                               ; preds = %22
  %27 = load i32, i32* %2, align 4
  %28 = load i32, i32* %3, align 4
  %29 = sext i32 %28 to i64
  %30 = getelementptr inbounds [50 x i32], [50 x i32]* %10, i64 0, i64 %29
  store i32 %27, i32* %30, align 4
  %31 = load i32, i32* %3, align 4
  %32 = add nsw i32 %31, 1
  store i32 %32, i32* %3, align 4
  br label %33

33:                                               ; preds = %26, %22
  br label %34

34:                                               ; preds = %33
  %35 = load i32, i32* %2, align 4
  %36 = add nsw i32 %35, 1
  store i32 %36, i32* %2, align 4
  br label %15

37:                                               ; preds = %15
  %38 = load i32, i32* %2, align 4
  %39 = load i32, i32* %3, align 4
  %40 = sext i32 %39 to i64
  %41 = getelementptr inbounds [50 x i32], [50 x i32]* %10, i64 0, i64 %40
  store i32 %38, i32* %41, align 4
  %42 = getelementptr inbounds [50 x i32], [50 x i32]* %10, i64 0, i64 0
  %43 = load i32, i32* %42, align 16
  %44 = add nsw i32 %43, 1
  store i32 %44, i32* %7, align 4
  %45 = getelementptr inbounds [50 x i32], [50 x i32]* %10, i64 0, i64 0
  %46 = load i32, i32* %45, align 16
  %47 = add nsw i32 %46, 1
  store i32 %47, i32* %4, align 4
  store i32 0, i32* %2, align 4
  br label %48

48:                                               ; preds = %119, %37
  %49 = load i32, i32* %2, align 4
  %50 = load i32, i32* %3, align 4
  %51 = icmp slt i32 %49, %50
  br i1 %51, label %52, label %122

52:                                               ; preds = %48
  %53 = load i32, i32* %2, align 4
  %54 = add nsw i32 %53, 1
  %55 = sext i32 %54 to i64
  %56 = getelementptr inbounds [50 x i32], [50 x i32]* %10, i64 0, i64 %55
  %57 = load i32, i32* %56, align 4
  %58 = load i32, i32* %2, align 4
  %59 = sext i32 %58 to i64
  %60 = getelementptr inbounds [50 x i32], [50 x i32]* %10, i64 0, i64 %59
  %61 = load i32, i32* %60, align 4
  %62 = sub nsw i32 %57, %61
  %63 = load i32, i32* %7, align 4
  %64 = icmp sgt i32 %62, %63
  br i1 %64, label %65, label %85

65:                                               ; preds = %52
  %66 = load i32, i32* %2, align 4
  %67 = add nsw i32 %66, 1
  %68 = sext i32 %67 to i64
  %69 = getelementptr inbounds [50 x i32], [50 x i32]* %10, i64 0, i64 %68
  %70 = load i32, i32* %69, align 4
  %71 = load i32, i32* %2, align 4
  %72 = sext i32 %71 to i64
  %73 = getelementptr inbounds [50 x i32], [50 x i32]* %10, i64 0, i64 %72
  %74 = load i32, i32* %73, align 4
  %75 = sub nsw i32 %70, %74
  store i32 %75, i32* %7, align 4
  %76 = load i32, i32* %2, align 4
  %77 = sext i32 %76 to i64
  %78 = getelementptr inbounds [50 x i32], [50 x i32]* %10, i64 0, i64 %77
  %79 = load i32, i32* %78, align 4
  store i32 %79, i32* %8, align 4
  %80 = load i32, i32* %2, align 4
  %81 = add nsw i32 %80, 1
  %82 = sext i32 %81 to i64
  %83 = getelementptr inbounds [50 x i32], [50 x i32]* %10, i64 0, i64 %82
  %84 = load i32, i32* %83, align 4
  store i32 %84, i32* %9, align 4
  br label %85

85:                                               ; preds = %65, %52
  %86 = load i32, i32* %2, align 4
  %87 = add nsw i32 %86, 1
  %88 = sext i32 %87 to i64
  %89 = getelementptr inbounds [50 x i32], [50 x i32]* %10, i64 0, i64 %88
  %90 = load i32, i32* %89, align 4
  %91 = load i32, i32* %2, align 4
  %92 = sext i32 %91 to i64
  %93 = getelementptr inbounds [50 x i32], [50 x i32]* %10, i64 0, i64 %92
  %94 = load i32, i32* %93, align 4
  %95 = sub nsw i32 %90, %94
  %96 = load i32, i32* %4, align 4
  %97 = icmp slt i32 %95, %96
  br i1 %97, label %98, label %118

98:                                               ; preds = %85
  %99 = load i32, i32* %2, align 4
  %100 = add nsw i32 %99, 1
  %101 = sext i32 %100 to i64
  %102 = getelementptr inbounds [50 x i32], [50 x i32]* %10, i64 0, i64 %101
  %103 = load i32, i32* %102, align 4
  %104 = load i32, i32* %2, align 4
  %105 = sext i32 %104 to i64
  %106 = getelementptr inbounds [50 x i32], [50 x i32]* %10, i64 0, i64 %105
  %107 = load i32, i32* %106, align 4
  %108 = sub nsw i32 %103, %107
  store i32 %108, i32* %4, align 4
  %109 = load i32, i32* %2, align 4
  %110 = sext i32 %109 to i64
  %111 = getelementptr inbounds [50 x i32], [50 x i32]* %10, i64 0, i64 %110
  %112 = load i32, i32* %111, align 4
  store i32 %112, i32* %5, align 4
  %113 = load i32, i32* %2, align 4
  %114 = add nsw i32 %113, 1
  %115 = sext i32 %114 to i64
  %116 = getelementptr inbounds [50 x i32], [50 x i32]* %10, i64 0, i64 %115
  %117 = load i32, i32* %116, align 4
  store i32 %117, i32* %6, align 4
  br label %118

118:                                              ; preds = %98, %85
  br label %119

119:                                              ; preds = %118
  %120 = load i32, i32* %2, align 4
  %121 = add nsw i32 %120, 1
  store i32 %121, i32* %2, align 4
  br label %48

122:                                              ; preds = %48
  %123 = load i32, i32* %7, align 4
  %124 = getelementptr inbounds [50 x i32], [50 x i32]* %10, i64 0, i64 0
  %125 = load i32, i32* %124, align 16
  %126 = add nsw i32 %125, 1
  %127 = icmp eq i32 %123, %126
  br i1 %127, label %128, label %145

128:                                              ; preds = %122
  store i32 0, i32* %2, align 4
  br label %129

129:                                              ; preds = %141, %128
  %130 = load i32, i32* %2, align 4
  %131 = load i32, i32* %7, align 4
  %132 = sub nsw i32 %131, 1
  %133 = icmp slt i32 %130, %132
  br i1 %133, label %134, label %144

134:                                              ; preds = %129
  %135 = load i32, i32* %2, align 4
  %136 = sext i32 %135 to i64
  %137 = getelementptr inbounds [1000 x i8], [1000 x i8]* %12, i64 0, i64 %136
  %138 = load i8, i8* %137, align 1
  %139 = sext i8 %138 to i32
  %140 = call i32 (i8*, ...) @printf(i8* getelementptr inbounds ([3 x i8], [3 x i8]* @.str, i64 0, i64 0), i32 %139)
  br label %141

141:                                              ; preds = %134
  %142 = load i32, i32* %2, align 4
  %143 = add nsw i32 %142, 1
  store i32 %143, i32* %2, align 4
  br label %129

144:                                              ; preds = %129
  br label %163

145:                                              ; preds = %122
  %146 = load i32, i32* %8, align 4
  %147 = add nsw i32 %146, 1
  store i32 %147, i32* %2, align 4
  br label %148

148:                                              ; preds = %159, %145
  %149 = load i32, i32* %2, align 4
  %150 = load i32, i32* %9, align 4
  %151 = icmp slt i32 %149, %150
  br i1 %151, label %152, label %162

152:                                              ; preds = %148
  %153 = load i32, i32* %2, align 4
  %154 = sext i32 %153 to i64
  %155 = getelementptr inbounds [1000 x i8], [1000 x i8]* %12, i64 0, i64 %154
  %156 = load i8, i8* %155, align 1
  %157 = sext i8 %156 to i32
  %158 = call i32 (i8*, ...) @printf(i8* getelementptr inbounds ([3 x i8], [3 x i8]* @.str, i64 0, i64 0), i32 %157)
  br label %159

159:                                              ; preds = %152
  %160 = load i32, i32* %2, align 4
  %161 = add nsw i32 %160, 1
  store i32 %161, i32* %2, align 4
  br label %148

162:                                              ; preds = %148
  br label %163

163:                                              ; preds = %162, %144
  %164 = call i32 (i8*, ...) @printf(i8* getelementptr inbounds ([2 x i8], [2 x i8]* @.str.1, i64 0, i64 0))
  %165 = load i32, i32* %4, align 4
  %166 = getelementptr inbounds [50 x i32], [50 x i32]* %10, i64 0, i64 0
  %167 = load i32, i32* %166, align 16
  %168 = add nsw i32 %167, 1
  %169 = icmp eq i32 %165, %168
  br i1 %169, label %170, label %187

170:                                              ; preds = %163
  store i32 0, i32* %2, align 4
  br label %171

171:                                              ; preds = %183, %170
  %172 = load i32, i32* %2, align 4
  %173 = load i32, i32* %4, align 4
  %174 = sub nsw i32 %173, 1
  %175 = icmp slt i32 %172, %174
  br i1 %175, label %176, label %186

176:                                              ; preds = %171
  %177 = load i32, i32* %2, align 4
  %178 = sext i32 %177 to i64
  %179 = getelementptr inbounds [1000 x i8], [1000 x i8]* %12, i64 0, i64 %178
  %180 = load i8, i8* %179, align 1
  %181 = sext i8 %180 to i32
  %182 = call i32 (i8*, ...) @printf(i8* getelementptr inbounds ([3 x i8], [3 x i8]* @.str, i64 0, i64 0), i32 %181)
  br label %183

183:                                              ; preds = %176
  %184 = load i32, i32* %2, align 4
  %185 = add nsw i32 %184, 1
  store i32 %185, i32* %2, align 4
  br label %171

186:                                              ; preds = %171
  br label %205

187:                                              ; preds = %163
  %188 = load i32, i32* %5, align 4
  %189 = add nsw i32 %188, 1
  store i32 %189, i32* %2, align 4
  br label %190

190:                                              ; preds = %201, %187
  %191 = load i32, i32* %2, align 4
  %192 = load i32, i32* %6, align 4
  %193 = icmp slt i32 %191, %192
  br i1 %193, label %194, label %204

194:                                              ; preds = %190
  %195 = load i32, i32* %2, align 4
  %196 = sext i32 %195 to i64
  %197 = getelementptr inbounds [1000 x i8], [1000 x i8]* %12, i64 0, i64 %196
  %198 = load i8, i8* %197, align 1
  %199 = sext i8 %198 to i32
  %200 = call i32 (i8*, ...) @printf(i8* getelementptr inbounds ([3 x i8], [3 x i8]* @.str, i64 0, i64 0), i32 %199)
  br label %201

201:                                              ; preds = %194
  %202 = load i32, i32* %2, align 4
  %203 = add nsw i32 %202, 1
  store i32 %203, i32* %2, align 4
  br label %190

204:                                              ; preds = %190
  br label %205

205:                                              ; preds = %204, %186
  %206 = call i32 (i8*, ...) @printf(i8* getelementptr inbounds ([2 x i8], [2 x i8]* @.str.1, i64 0, i64 0))
  ret i32 0
}

declare dso_local i32 @gets(...) #1

declare dso_local i32 @printf(i8*, ...) #1


!llvm.module.flags = !{!0}
!llvm.ident = !{!1}

!0 = !{i32 1, !"wchar_size", i32 4}
!1 = !{!"clang version 10.0.0-4ubuntu1 "}
